; Function Attrs: mustprogress uwtable
define void @_ZN6icu_758TZGNCore7cleanupEv(ptr nocapture noundef nonnull readonly align 8 dereferenceable(485) %this) local_unnamed_addr #1 align 2 {
entry:
  %fLocaleDisplayNames = getelementptr inbounds i8, ptr %this, i64 400
  %0 = load ptr, ptr %fLocaleDisplayNames, align 8
  %cmp.not = icmp eq ptr %0, null
  br i1 %cmp.not, label %if.end, label %delete.notnull

delete.notnull:                                   ; preds = %entry
  %vtable = load ptr, ptr %0, align 8
  %vfn = getelementptr inbounds i8, ptr %vtable, i64 8
  %1 = load ptr, ptr %vfn, align 8
  tail call void %1(ptr noundef nonnull align 8 dereferenceable(8) %0) #17
  br label %if.end

if.end:                                           ; preds = %delete.notnull, %entry
  %fTimeZoneNames = getelementptr inbounds i8, ptr %this, i64 232
  %2 = load ptr, ptr %fTimeZoneNames, align 8
  %cmp3.not = icmp eq ptr %2, null
  br i1 %cmp3.not, label %if.end11, label %delete.notnull7

delete.notnull7:                                  ; preds = %if.end
  %vtable8 = load ptr, ptr %2, align 8
  %vfn9 = getelementptr inbounds i8, ptr %vtable8, i64 8
  %3 = load ptr, ptr %vfn9, align 8
  tail call void %3(ptr noundef nonnull align 8 dereferenceable(8) %2) #17
  br label %if.end11

if.end11:                                         ; preds = %delete.notnull7, %if.end
  %fLocationNamesMap = getelementptr inbounds i8, ptr %this, i64 240
  %4 = load ptr, ptr %fLocationNamesMap, align 8
  tail call void @uhash_close_75(ptr noundef %4)
  %fPartialLocationNamesMap = getelementptr inbounds i8, ptr %this, i64 248
  %5 = load ptr, ptr %fPartialLocationNamesMap, align 8
  tail call void @uhash_close_75(ptr noundef %5)
  ret void
}